target datalayout = "e-m:e-p270:32:32-p271:32:32-p272:64:64-i64:64-i128:128-f80:128-n8:16:32:64-S128"
target triple = "x86_64-pc-linux-gnu"

%union._GMutex = type { ptr }
%struct.InsnData = type { ptr, ptr, i64, i64, i64, i64 }

@sys = internal global i8 0, align 1
@miss_ht = internal global ptr null, align 8
@hashtable_lock = internal global %union._GMutex zeroinitializer, align 8
@rw = internal global i32 3, align 4

; Function Attrs: nounwind sspstrong uwtable
define internal void @vcpu_tb_trans(i64 noundef %0, ptr noundef %1) #0 {
  %3 = alloca i64, align 8
  %4 = alloca ptr, align 8
  %5 = alloca i64, align 8
  %6 = alloca i64, align 8
  %7 = alloca ptr, align 8
  %8 = alloca ptr, align 8
  %9 = alloca i64, align 8
  %10 = alloca i64, align 8
  %11 = alloca i64, align 8
  %12 = alloca ptr, align 8
  %13 = alloca ptr, align 8
  store i64 %0, ptr %3, align 8
  store ptr %1, ptr %4, align 8
  call void @llvm.lifetime.start.p0(i64 8, ptr %5) #10
  store i64 0, ptr %5, align 8, !annotation !3
  call void @llvm.lifetime.start.p0(i64 8, ptr %6) #10
  store i64 0, ptr %6, align 8, !annotation !3
  call void @llvm.lifetime.start.p0(i64 8, ptr %7) #10
  store ptr null, ptr %7, align 8, !annotation !3
  %14 = load ptr, ptr %4, align 8
  %15 = call i64 @qemu_plugin_tb_n_insns(ptr noundef %14)
  store i64 %15, ptr %5, align 8
  store i64 0, ptr %6, align 8
  br label %16

16:                                               ; preds = %91, %2
  %17 = load i64, ptr %6, align 8
  %18 = load i64, ptr %5, align 8
  %19 = icmp ult i64 %17, %18
  br i1 %19, label %20, label %94

20:                                               ; preds = %16
  call void @llvm.lifetime.start.p0(i64 8, ptr %8) #10
  %21 = load ptr, ptr %4, align 8
  %22 = load i64, ptr %6, align 8
  %23 = call ptr @qemu_plugin_tb_get_insn(ptr noundef %21, i64 noundef %22)
  store ptr %23, ptr %8, align 8
  call void @llvm.lifetime.start.p0(i64 8, ptr %9) #10
  %24 = load i8, ptr @sys, align 1, !range !4, !noundef !5
  %25 = trunc i8 %24 to i1
  br i1 %25, label %26, label %30

26:                                               ; preds = %20
  %27 = load ptr, ptr %8, align 8
  %28 = call ptr @qemu_plugin_insn_haddr(ptr noundef %27)
  %29 = ptrtoint ptr %28 to i64
  br label %33

30:                                               ; preds = %20
  %31 = load ptr, ptr %8, align 8
  %32 = call i64 @qemu_plugin_insn_vaddr(ptr noundef %31)
  br label %33

33:                                               ; preds = %30, %26
  %34 = phi i64 [ %29, %26 ], [ %32, %30 ]
  store i64 %34, ptr %9, align 8
  call void @g_mutex_lock(ptr noundef @hashtable_lock)
  %35 = load ptr, ptr @miss_ht, align 8
  %36 = call ptr @g_hash_table_lookup(ptr noundef %35, ptr noundef %9)
  store ptr %36, ptr %7, align 8
  %37 = load ptr, ptr %7, align 8
  %38 = icmp eq ptr %37, null
  br i1 %38, label %39, label %85

39:                                               ; preds = %33
  call void @llvm.lifetime.start.p0(i64 8, ptr %10) #10
  store i64 1, ptr %10, align 8
  call void @llvm.lifetime.start.p0(i64 8, ptr %11) #10
  store i64 48, ptr %11, align 8
  call void @llvm.lifetime.start.p0(i64 8, ptr %12) #10
  store ptr null, ptr %12, align 8, !annotation !3
  %40 = load i64, ptr %11, align 8
  %41 = icmp eq i64 %40, 1
  br i1 %41, label %42, label %45

42:                                               ; preds = %39
  %43 = load i64, ptr %10, align 8
  %44 = call noalias ptr @g_malloc0(i64 noundef %43) #11
  store ptr %44, ptr %12, align 8
  br label %66

45:                                               ; preds = %39
  %46 = load i64, ptr %10, align 8
  %47 = call i1 @llvm.is.constant.i64(i64 %46)
  br i1 %47, label %48, label %61

48:                                               ; preds = %45
  %49 = load i64, ptr %11, align 8
  %50 = icmp eq i64 %49, 0
  br i1 %50, label %56, label %51

51:                                               ; preds = %48
  %52 = load i64, ptr %10, align 8
  %53 = load i64, ptr %11, align 8
  %54 = udiv i64 -1, %53
  %55 = icmp ule i64 %52, %54
  br i1 %55, label %56, label %61

56:                                               ; preds = %51, %48
  %57 = load i64, ptr %10, align 8
  %58 = load i64, ptr %11, align 8
  %59 = mul i64 %57, %58
  %60 = call noalias ptr @g_malloc0(i64 noundef %59) #11
  store ptr %60, ptr %12, align 8
  br label %65

61:                                               ; preds = %51, %45
  %62 = load i64, ptr %10, align 8
  %63 = load i64, ptr %11, align 8
  %64 = call noalias ptr @g_malloc0_n(i64 noundef %62, i64 noundef %63) #12
  store ptr %64, ptr %12, align 8
  br label %65

65:                                               ; preds = %61, %56
  br label %66

66:                                               ; preds = %65, %42
  %67 = load ptr, ptr %12, align 8
  store ptr %67, ptr %13, align 8
  call void @llvm.lifetime.end.p0(i64 8, ptr %12) #10
  call void @llvm.lifetime.end.p0(i64 8, ptr %11) #10
  call void @llvm.lifetime.end.p0(i64 8, ptr %10) #10
  %68 = load ptr, ptr %13, align 8
  store ptr %68, ptr %7, align 8
  %69 = load ptr, ptr %8, align 8
  %70 = call ptr @qemu_plugin_insn_disas(ptr noundef %69)
  %71 = load ptr, ptr %7, align 8
  %72 = getelementptr inbounds nuw %struct.InsnData, ptr %71, i32 0, i32 0
  store ptr %70, ptr %72, align 8
  %73 = load ptr, ptr %8, align 8
  %74 = call ptr @qemu_plugin_insn_symbol(ptr noundef %73)
  %75 = load ptr, ptr %7, align 8
  %76 = getelementptr inbounds nuw %struct.InsnData, ptr %75, i32 0, i32 1
  store ptr %74, ptr %76, align 8
  %77 = load i64, ptr %9, align 8
  %78 = load ptr, ptr %7, align 8
  %79 = getelementptr inbounds nuw %struct.InsnData, ptr %78, i32 0, i32 2
  store i64 %77, ptr %79, align 8
  %80 = load ptr, ptr @miss_ht, align 8
  %81 = load ptr, ptr %7, align 8
  %82 = getelementptr inbounds nuw %struct.InsnData, ptr %81, i32 0, i32 2
  %83 = load ptr, ptr %7, align 8
  %84 = call i32 @g_hash_table_insert(ptr noundef %80, ptr noundef %82, ptr noundef %83)
  br label %85

85:                                               ; preds = %66, %33
  call void @g_mutex_unlock(ptr noundef @hashtable_lock)
  %86 = load ptr, ptr %8, align 8
  %87 = load i32, ptr @rw, align 4
  %88 = load ptr, ptr %7, align 8
  call void @qemu_plugin_register_vcpu_mem_cb(ptr noundef %86, ptr noundef @vcpu_mem_access, i32 noundef 0, i32 noundef %87, ptr noundef %88)
  %89 = load ptr, ptr %8, align 8
  %90 = load ptr, ptr %7, align 8
  call void @qemu_plugin_register_vcpu_insn_exec_cb(ptr noundef %89, ptr noundef @vcpu_insn_exec, i32 noundef 0, ptr noundef %90)
  call void @llvm.lifetime.end.p0(i64 8, ptr %9) #10
  call void @llvm.lifetime.end.p0(i64 8, ptr %8) #10
  br label %91

91:                                               ; preds = %85
  %92 = load i64, ptr %6, align 8
  %93 = add i64 %92, 1
  store i64 %93, ptr %6, align 8
  br label %16, !llvm.loop !9

94:                                               ; preds = %16
  call void @llvm.lifetime.end.p0(i64 8, ptr %7) #10
  call void @llvm.lifetime.end.p0(i64 8, ptr %6) #10
  call void @llvm.lifetime.end.p0(i64 8, ptr %5) #10
  ret void
}