; Function Attrs: nounwind sspstrong uwtable
define internal void @vcpu_tb_trans(i64 %0, ptr noundef %1) #0 {
  %3 = alloca i64, align 8
  %4 = tail call i64 @qemu_plugin_tb_n_insns(ptr noundef %1) #12
  %.not = icmp eq i64 %4, 0
  br i1 %.not, label %._crit_edge, label %.lr.ph

.lr.ph:                                           ; preds = %2, %27
  %.03134 = phi i64 [ %28, %27 ], [ 0, %2 ]
  %5 = call ptr @qemu_plugin_tb_get_insn(ptr noundef %1, i64 noundef %.03134) #12
  call void @llvm.lifetime.start.p0(i64 8, ptr nonnull %3) #12
  %6 = load i8, ptr @sys, align 1, !range !3, !noundef !4
  %7 = trunc nuw i8 %6 to i1
  br i1 %7, label %8, label %11

8:                                                ; preds = %.lr.ph
  %9 = call ptr @qemu_plugin_insn_haddr(ptr noundef %5) #12
  %10 = ptrtoint ptr %9 to i64
  br label %13

11:                                               ; preds = %.lr.ph
  %12 = call i64 @qemu_plugin_insn_vaddr(ptr noundef %5) #12
  br label %13

13:                                               ; preds = %11, %8
  %14 = phi i64 [ %10, %8 ], [ %12, %11 ]
  store i64 %14, ptr %3, align 8
  call void @g_mutex_lock(ptr noundef nonnull @hashtable_lock) #12
  %15 = load ptr, ptr @miss_ht, align 8
  %16 = call ptr @g_hash_table_lookup(ptr noundef %15, ptr noundef nonnull %3) #12
  %17 = icmp eq ptr %16, null
  br i1 %17, label %18, label %27

18:                                               ; preds = %13
  %19 = call noalias dereferenceable_or_null(48) ptr @g_malloc0(i64 noundef 48) #17
  %20 = call ptr @qemu_plugin_insn_disas(ptr noundef %5) #12
  store ptr %20, ptr %19, align 8
  %21 = call ptr @qemu_plugin_insn_symbol(ptr noundef %5) #12
  %22 = getelementptr inbounds nuw i8, ptr %19, i64 8
  store ptr %21, ptr %22, align 8
  %23 = load i64, ptr %3, align 8
  %24 = getelementptr inbounds nuw i8, ptr %19, i64 16
  store i64 %23, ptr %24, align 8
  %25 = load ptr, ptr @miss_ht, align 8
  %26 = call i32 @g_hash_table_insert(ptr noundef %25, ptr noundef nonnull %24, ptr noundef nonnull %19) #12
  br label %27

27:                                               ; preds = %18, %13
  %.032 = phi ptr [ %19, %18 ], [ %16, %13 ]
  call void @g_mutex_unlock(ptr noundef nonnull @hashtable_lock) #12
  call void @qemu_plugin_register_vcpu_mem_cb(ptr noundef %5, ptr noundef nonnull @vcpu_mem_access, i32 noundef 0, i32 noundef 3, ptr noundef nonnull %.032) #12
  call void @qemu_plugin_register_vcpu_insn_exec_cb(ptr noundef %5, ptr noundef nonnull @vcpu_insn_exec, i32 noundef 0, ptr noundef nonnull %.032) #12
  call void @llvm.lifetime.end.p0(i64 8, ptr nonnull %3) #12
  %28 = add nuw i64 %.03134, 1
  %exitcond.not = icmp eq i64 %28, %4
  br i1 %exitcond.not, label %._crit_edge, label %.lr.ph, !llvm.loop !11

._crit_edge:                                      ; preds = %27, %2
  ret void
}